target datalayout = "e-m:e-p270:32:32-p271:32:32-p272:64:64-i64:64-i128:128-f80:128-n8:16:32:64-S128"
target triple = "x86_64-pc-linux-gnu"

%struct.AMRFixed = type { i32, [10 x i32], [10 x float], i32, i32, float }

; Function Attrs: nounwind uwtable
define void @ff_decode_10_pulses_35bits(ptr noundef %0, ptr noundef %1, ptr noundef %2, i32 noundef %3, i32 noundef %4) #0 {
  %6 = alloca ptr, align 8
  %7 = alloca ptr, align 8
  %8 = alloca ptr, align 8
  %9 = alloca i32, align 4
  %10 = alloca i32, align 4
  %11 = alloca i32, align 4
  %12 = alloca i32, align 4
  %13 = alloca i32, align 4
  %14 = alloca i32, align 4
  %15 = alloca float, align 4
  store ptr %0, ptr %6, align 8, !tbaa !4
  store ptr %1, ptr %7, align 8, !tbaa !18
  store ptr %2, ptr %8, align 8, !tbaa !9
  store i32 %3, ptr %9, align 4, !tbaa !11
  store i32 %4, ptr %10, align 4, !tbaa !11
  call void @llvm.lifetime.start.p0(i64 4, ptr %11) #6
  call void @llvm.lifetime.start.p0(i64 4, ptr %12) #6
  %16 = load i32, ptr %10, align 4, !tbaa !11
  %17 = shl i32 1, %16
  %18 = sub nsw i32 %17, 1
  store i32 %18, ptr %12, align 4, !tbaa !11
  %19 = load ptr, ptr %7, align 8, !tbaa !18
  %20 = getelementptr inbounds nuw %struct.AMRFixed, ptr %19, i32 0, i32 3
  store i32 0, ptr %20, align 4, !tbaa !20
  %21 = load i32, ptr %9, align 4, !tbaa !11
  %22 = mul nsw i32 2, %21
  %23 = load ptr, ptr %7, align 8, !tbaa !18
  %24 = getelementptr inbounds nuw %struct.AMRFixed, ptr %23, i32 0, i32 0
  store i32 %22, ptr %24, align 4, !tbaa !23
  store i32 0, ptr %11, align 4, !tbaa !11
  br label %25

25:                                               ; preds = %116, %5
  %26 = load i32, ptr %11, align 4, !tbaa !11
  %27 = load i32, ptr %9, align 4, !tbaa !11
  %28 = icmp slt i32 %26, %27
  br i1 %28, label %29, label %119

29:                                               ; preds = %25
  call void @llvm.lifetime.start.p0(i64 4, ptr %13) #6
  %30 = load ptr, ptr %8, align 8, !tbaa !9
  %31 = load ptr, ptr %6, align 8, !tbaa !4
  %32 = load i32, ptr %11, align 4, !tbaa !11
  %33 = mul nsw i32 2, %32
  %34 = add nsw i32 %33, 1
  %35 = sext i32 %34 to i64
  %36 = getelementptr inbounds i16, ptr %31, i64 %35
  %37 = load i16, ptr %36, align 2, !tbaa !14
  %38 = sext i16 %37 to i32
  %39 = load i32, ptr %12, align 4, !tbaa !11
  %40 = and i32 %38, %39
  %41 = sext i32 %40 to i64
  %42 = getelementptr inbounds i8, ptr %30, i64 %41
  %43 = load i8, ptr %42, align 1, !tbaa !13
  %44 = zext i8 %43 to i32
  %45 = load i32, ptr %11, align 4, !tbaa !11
  %46 = add nsw i32 %44, %45
  store i32 %46, ptr %13, align 4, !tbaa !11
  call void @llvm.lifetime.start.p0(i64 4, ptr %14) #6
  %47 = load ptr, ptr %8, align 8, !tbaa !9
  %48 = load ptr, ptr %6, align 8, !tbaa !4
  %49 = load i32, ptr %11, align 4, !tbaa !11
  %50 = mul nsw i32 2, %49
  %51 = sext i32 %50 to i64
  %52 = getelementptr inbounds i16, ptr %48, i64 %51
  %53 = load i16, ptr %52, align 2, !tbaa !14
  %54 = sext i16 %53 to i32
  %55 = load i32, ptr %12, align 4, !tbaa !11
  %56 = and i32 %54, %55
  %57 = sext i32 %56 to i64
  %58 = getelementptr inbounds i8, ptr %47, i64 %57
  %59 = load i8, ptr %58, align 1, !tbaa !13
  %60 = zext i8 %59 to i32
  %61 = load i32, ptr %11, align 4, !tbaa !11
  %62 = add nsw i32 %60, %61
  store i32 %62, ptr %14, align 4, !tbaa !11
  call void @llvm.lifetime.start.p0(i64 4, ptr %15) #6
  %63 = load ptr, ptr %6, align 8, !tbaa !4
  %64 = load i32, ptr %11, align 4, !tbaa !11
  %65 = mul nsw i32 2, %64
  %66 = add nsw i32 %65, 1
  %67 = sext i32 %66 to i64
  %68 = getelementptr inbounds i16, ptr %63, i64 %67
  %69 = load i16, ptr %68, align 2, !tbaa !14
  %70 = sext i16 %69 to i32
  %71 = load i32, ptr %10, align 4, !tbaa !11
  %72 = shl i32 1, %71
  %73 = and i32 %70, %72
  %74 = icmp ne i32 %73, 0
  %75 = select nsz i1 %74, double -1.000000e+00, double 1.000000e+00
  %76 = fptrunc nsz double %75 to float
  store float %76, ptr %15, align 4, !tbaa !24
  %77 = load i32, ptr %13, align 4, !tbaa !11
  %78 = load ptr, ptr %7, align 8, !tbaa !18
  %79 = getelementptr inbounds nuw %struct.AMRFixed, ptr %78, i32 0, i32 1
  %80 = load i32, ptr %11, align 4, !tbaa !11
  %81 = mul nsw i32 2, %80
  %82 = add nsw i32 %81, 1
  %83 = sext i32 %82 to i64
  %84 = getelementptr inbounds [10 x i32], ptr %79, i64 0, i64 %83
  store i32 %77, ptr %84, align 4, !tbaa !11
  %85 = load i32, ptr %14, align 4, !tbaa !11
  %86 = load ptr, ptr %7, align 8, !tbaa !18
  %87 = getelementptr inbounds nuw %struct.AMRFixed, ptr %86, i32 0, i32 1
  %88 = load i32, ptr %11, align 4, !tbaa !11
  %89 = mul nsw i32 2, %88
  %90 = sext i32 %89 to i64
  %91 = getelementptr inbounds [10 x i32], ptr %87, i64 0, i64 %90
  store i32 %85, ptr %91, align 4, !tbaa !11
  %92 = load float, ptr %15, align 4, !tbaa !24
  %93 = load ptr, ptr %7, align 8, !tbaa !18
  %94 = getelementptr inbounds nuw %struct.AMRFixed, ptr %93, i32 0, i32 2
  %95 = load i32, ptr %11, align 4, !tbaa !11
  %96 = mul nsw i32 2, %95
  %97 = add nsw i32 %96, 1
  %98 = sext i32 %97 to i64
  %99 = getelementptr inbounds [10 x float], ptr %94, i64 0, i64 %98
  store float %92, ptr %99, align 4, !tbaa !24
  %100 = load i32, ptr %14, align 4, !tbaa !11
  %101 = load i32, ptr %13, align 4, !tbaa !11
  %102 = icmp slt i32 %100, %101
  br i1 %102, label %103, label %106

103:                                              ; preds = %29
  %104 = load float, ptr %15, align 4, !tbaa !24
  %105 = fneg nsz float %104
  br label %108

106:                                              ; preds = %29
  %107 = load float, ptr %15, align 4, !tbaa !24
  br label %108

108:                                              ; preds = %106, %103
  %109 = phi nsz float [ %105, %103 ], [ %107, %106 ]
  %110 = load ptr, ptr %7, align 8, !tbaa !18
  %111 = getelementptr inbounds nuw %struct.AMRFixed, ptr %110, i32 0, i32 2
  %112 = load i32, ptr %11, align 4, !tbaa !11
  %113 = mul nsw i32 2, %112
  %114 = sext i32 %113 to i64
  %115 = getelementptr inbounds [10 x float], ptr %111, i64 0, i64 %114
  store float %109, ptr %115, align 4, !tbaa !24
  call void @llvm.lifetime.end.p0(i64 4, ptr %15) #6
  call void @llvm.lifetime.end.p0(i64 4, ptr %14) #6
  call void @llvm.lifetime.end.p0(i64 4, ptr %13) #6
  br label %116

116:                                              ; preds = %108
  %117 = load i32, ptr %11, align 4, !tbaa !11
  %118 = add nsw i32 %117, 1
  store i32 %118, ptr %11, align 4, !tbaa !11
  br label %25, !llvm.loop !25

119:                                              ; preds = %25
  call void @llvm.lifetime.end.p0(i64 4, ptr %12) #6
  call void @llvm.lifetime.end.p0(i64 4, ptr %11) #6
  ret void
}