; Function Attrs: nofree norecurse nosync nounwind memory(argmem: readwrite) uwtable
define void @ff_decode_10_pulses_35bits(ptr noundef readonly captures(none) %0, ptr noundef writeonly captures(none) initializes((0, 4), (84, 88)) %1, ptr noundef readonly captures(none) %2, i32 noundef %3, i32 noundef %4) local_unnamed_addr #0 {
  %6 = shl nuw i32 1, %4
  %7 = add nsw i32 %6, -1
  %8 = getelementptr inbounds nuw i8, ptr %1, i64 84
  store i32 0, ptr %8, align 4, !tbaa !11
  %9 = shl nsw i32 %3, 1
  store i32 %9, ptr %1, align 4, !tbaa !15
  %10 = icmp sgt i32 %3, 0
  br i1 %10, label %.lr.ph, label %._crit_edge

.lr.ph:                                           ; preds = %5
  %11 = getelementptr inbounds nuw i8, ptr %1, i64 4
  %12 = getelementptr inbounds nuw i8, ptr %1, i64 44
  %wide.trip.count = zext nneg i32 %3 to i64
  br label %13

13:                                               ; preds = %.lr.ph, %13
  %indvars.iv = phi i64 [ 0, %.lr.ph ], [ %indvars.iv.next, %13 ]
  %14 = shl nuw nsw i64 %indvars.iv, 1
  %15 = or disjoint i64 %14, 1
  %16 = getelementptr inbounds nuw i16, ptr %0, i64 %15
  %17 = load i16, ptr %16, align 2, !tbaa !7
  %18 = sext i16 %17 to i32
  %19 = and i32 %7, %18
  %20 = zext nneg i32 %19 to i64
  %21 = getelementptr inbounds nuw i8, ptr %2, i64 %20
  %22 = load i8, ptr %21, align 1, !tbaa !4
  %23 = zext i8 %22 to i32
  %24 = trunc nuw nsw i64 %indvars.iv to i32
  %25 = add nuw nsw i32 %24, %23
  %26 = getelementptr inbounds nuw i16, ptr %0, i64 %14
  %27 = load i16, ptr %26, align 2, !tbaa !7
  %28 = sext i16 %27 to i32
  %29 = and i32 %7, %28
  %30 = zext nneg i32 %29 to i64
  %31 = getelementptr inbounds nuw i8, ptr %2, i64 %30
  %32 = load i8, ptr %31, align 1, !tbaa !4
  %33 = zext i8 %32 to i32
  %34 = add nuw nsw i32 %24, %33
  %35 = and i32 %6, %18
  %.not = icmp eq i32 %35, 0
  %36 = select i1 %.not, float 1.000000e+00, float -1.000000e+00
  %37 = getelementptr inbounds nuw [10 x i32], ptr %11, i64 0, i64 %15
  store i32 %25, ptr %37, align 4, !tbaa !16
  %38 = getelementptr inbounds nuw [10 x i32], ptr %11, i64 0, i64 %14
  store i32 %34, ptr %38, align 4, !tbaa !16
  %39 = getelementptr inbounds nuw [10 x float], ptr %12, i64 0, i64 %15
  store float %36, ptr %39, align 4, !tbaa !17
  %40 = icmp ult i8 %32, %22
  %41 = fneg nsz float %36
  %42 = select nsz i1 %40, float %41, float %36
  %43 = getelementptr inbounds nuw [10 x float], ptr %12, i64 0, i64 %14
  store float %42, ptr %43, align 4, !tbaa !17
  %indvars.iv.next = add nuw nsw i64 %indvars.iv, 1
  %exitcond.not = icmp eq i64 %indvars.iv.next, %wide.trip.count
  br i1 %exitcond.not, label %._crit_edge, label %13, !llvm.loop !18

._crit_edge:                                      ; preds = %13, %5
  ret void
}